target datalayout = "e-m:e-p270:32:32-p271:32:32-p272:64:64-i64:64-i128:128-f80:128-n8:16:32:64-S128"
target triple = "x86_64-pc-linux-gnu"

%struct._zend_libxml_globals = type { %struct._zval_struct, %struct.smart_str, ptr, %struct._zend_fcall_info_cache, i8 }
%struct._zval_struct = type { %union._zend_value, %union.anon, %union.anon.2 }
%union._zend_value = type { i64 }
%union.anon = type { i32 }
%union.anon.2 = type { i32 }
%struct.smart_str = type { ptr, i64 }
%struct._zend_fcall_info_cache = type { ptr, ptr, ptr, ptr, ptr }
%struct._zend_refcounted_h = type { i32, %union.anon.3 }
%union.anon.3 = type { i32 }

@libxml_globals = internal global %struct._zend_libxml_globals zeroinitializer, align 8
@empty_fcall_info_cache = external constant %struct._zend_fcall_info_cache, align 8

; Function Attrs: nounwind uwtable
define internal i32 @zm_deactivate_libxml(i32 noundef %0, i32 noundef %1) #0 {
  %3 = alloca ptr, align 8
  %4 = alloca ptr, align 8
  %5 = alloca ptr, align 8
  %6 = alloca ptr, align 8
  %7 = alloca ptr, align 8
  %8 = alloca i32, align 4
  %9 = alloca i32, align 4
  store i32 %0, ptr %8, align 4
  store i32 %1, ptr %9, align 4
  %10 = load ptr, ptr getelementptr inbounds (%struct._zend_libxml_globals, ptr @libxml_globals, i32 0, i32 3), align 8
  %11 = icmp ne ptr %10, null
  br i1 %11, label %12, label %76

12:                                               ; preds = %2
  store ptr getelementptr inbounds (%struct._zend_libxml_globals, ptr @libxml_globals, i32 0, i32 3), ptr %7, align 8
  %13 = load ptr, ptr %7, align 8
  %14 = load ptr, ptr %13, align 8
  %15 = icmp ne ptr %14, null
  call void @llvm.assume(i1 %15)
  %16 = load ptr, ptr %7, align 8
  %17 = getelementptr inbounds %struct._zend_fcall_info_cache, ptr %16, i32 0, i32 3
  %18 = load ptr, ptr %17, align 8
  %19 = icmp ne ptr %18, null
  br i1 %19, label %20, label %44

20:                                               ; preds = %12
  %21 = load ptr, ptr %7, align 8
  %22 = getelementptr inbounds %struct._zend_fcall_info_cache, ptr %21, i32 0, i32 3
  %23 = load ptr, ptr %22, align 8
  store ptr %23, ptr %6, align 8
  %24 = load ptr, ptr %6, align 8
  store ptr %24, ptr %5, align 8
  %25 = load ptr, ptr %5, align 8
  %26 = load i32, ptr %25, align 4
  %27 = icmp ugt i32 %26, 0
  call void @llvm.assume(i1 %27)
  %28 = load ptr, ptr %5, align 8
  %29 = load i32, ptr %28, align 4
  %30 = add i32 %29, -1
  store i32 %30, ptr %28, align 4
  %31 = icmp eq i32 %30, 0
  br i1 %31, label %32, label %34

32:                                               ; preds = %20
  %33 = load ptr, ptr %6, align 8
  call void @zend_objects_store_del(ptr noundef %33) #11
  br label %43

34:                                               ; preds = %20
  %35 = load ptr, ptr %6, align 8
  %36 = getelementptr inbounds %struct._zend_refcounted_h, ptr %35, i32 0, i32 1
  %37 = load i32, ptr %36, align 4
  %38 = and i32 %37, -1008
  %39 = icmp eq i32 %38, 0
  br i1 %39, label %40, label %42

40:                                               ; preds = %34
  %41 = load ptr, ptr %6, align 8
  call void @gc_possible_root(ptr noundef %41) #11
  br label %42

42:                                               ; preds = %40, %34
  br label %43

43:                                               ; preds = %42, %32
  br label %44

44:                                               ; preds = %43, %12
  %45 = load ptr, ptr %7, align 8
  call void @zend_release_fcall_info_cache(ptr noundef %45) #11
  %46 = load ptr, ptr %7, align 8
  %47 = getelementptr inbounds %struct._zend_fcall_info_cache, ptr %46, i32 0, i32 4
  %48 = load ptr, ptr %47, align 8
  %49 = icmp ne ptr %48, null
  br i1 %49, label %50, label %74

50:                                               ; preds = %44
  %51 = load ptr, ptr %7, align 8
  %52 = getelementptr inbounds %struct._zend_fcall_info_cache, ptr %51, i32 0, i32 4
  %53 = load ptr, ptr %52, align 8
  store ptr %53, ptr %4, align 8
  %54 = load ptr, ptr %4, align 8
  store ptr %54, ptr %3, align 8
  %55 = load ptr, ptr %3, align 8
  %56 = load i32, ptr %55, align 4
  %57 = icmp ugt i32 %56, 0
  call void @llvm.assume(i1 %57)
  %58 = load ptr, ptr %3, align 8
  %59 = load i32, ptr %58, align 4
  %60 = add i32 %59, -1
  store i32 %60, ptr %58, align 4
  %61 = icmp eq i32 %60, 0
  br i1 %61, label %62, label %64

62:                                               ; preds = %50
  %63 = load ptr, ptr %4, align 8
  call void @zend_objects_store_del(ptr noundef %63) #11
  br label %73

64:                                               ; preds = %50
  %65 = load ptr, ptr %4, align 8
  %66 = getelementptr inbounds %struct._zend_refcounted_h, ptr %65, i32 0, i32 1
  %67 = load i32, ptr %66, align 4
  %68 = and i32 %67, -1008
  %69 = icmp eq i32 %68, 0
  br i1 %69, label %70, label %72

70:                                               ; preds = %64
  %71 = load ptr, ptr %4, align 8
  call void @gc_possible_root(ptr noundef %71) #11
  br label %72

72:                                               ; preds = %70, %64
  br label %73

73:                                               ; preds = %72, %62
  br label %74

74:                                               ; preds = %73, %44
  %75 = load ptr, ptr %7, align 8
  call void @llvm.memcpy.p0.p0.i64(ptr align 8 %75, ptr align 8 @empty_fcall_info_cache, i64 40, i1 false)
  br label %76

76:                                               ; preds = %74, %2
  ret i32 0
}