; Function Attrs: nounwind uwtable
define internal noundef i32 @zm_deactivate_libxml(i32 %0, i32 %1) #0 {
  %3 = load ptr, ptr getelementptr inbounds (%struct._zend_libxml_globals, ptr @libxml_globals, i64 0, i32 3), align 8
  %.not = icmp eq ptr %3, null
  br i1 %.not, label %33, label %4

4:                                                ; preds = %2
  %5 = load ptr, ptr getelementptr inbounds (%struct._zend_libxml_globals, ptr @libxml_globals, i64 0, i32 3, i32 3), align 8
  %.not20 = icmp eq ptr %5, null
  br i1 %.not20, label %18, label %6

6:                                                ; preds = %4
  %7 = load i32, ptr %5, align 4
  %8 = icmp ne i32 %7, 0
  tail call void @llvm.assume(i1 %8)
  %9 = add i32 %7, -1
  store i32 %9, ptr %5, align 4
  %10 = icmp eq i32 %9, 0
  br i1 %10, label %11, label %12

11:                                               ; preds = %6
  tail call void @zend_objects_store_del(ptr noundef nonnull %5) #17
  br label %18

12:                                               ; preds = %6
  %13 = getelementptr inbounds i8, ptr %5, i64 4
  %14 = load i32, ptr %13, align 4
  %15 = and i32 %14, -1008
  %16 = icmp eq i32 %15, 0
  br i1 %16, label %17, label %18

17:                                               ; preds = %12
  tail call void @gc_possible_root(ptr noundef nonnull %5) #17
  br label %18

18:                                               ; preds = %11, %17, %12, %4
  tail call void @zend_release_fcall_info_cache(ptr noundef nonnull getelementptr inbounds (%struct._zend_libxml_globals, ptr @libxml_globals, i64 0, i32 3)) #17
  %19 = load ptr, ptr getelementptr inbounds (%struct._zend_libxml_globals, ptr @libxml_globals, i64 0, i32 3, i32 4), align 8
  %.not21 = icmp eq ptr %19, null
  br i1 %.not21, label %32, label %20

20:                                               ; preds = %18
  %21 = load i32, ptr %19, align 4
  %22 = icmp ne i32 %21, 0
  tail call void @llvm.assume(i1 %22)
  %23 = add i32 %21, -1
  store i32 %23, ptr %19, align 4
  %24 = icmp eq i32 %23, 0
  br i1 %24, label %25, label %26

25:                                               ; preds = %20
  tail call void @zend_objects_store_del(ptr noundef nonnull %19) #17
  br label %32

26:                                               ; preds = %20
  %27 = getelementptr inbounds i8, ptr %19, i64 4
  %28 = load i32, ptr %27, align 4
  %29 = and i32 %28, -1008
  %30 = icmp eq i32 %29, 0
  br i1 %30, label %31, label %32

31:                                               ; preds = %26
  tail call void @gc_possible_root(ptr noundef nonnull %19) #17
  br label %32

32:                                               ; preds = %25, %31, %26, %18
  tail call void @llvm.memcpy.p0.p0.i64(ptr noundef nonnull align 8 dereferenceable(40) getelementptr inbounds (%struct._zend_libxml_globals, ptr @libxml_globals, i64 0, i32 3), ptr noundef nonnull align 8 dereferenceable(40) @empty_fcall_info_cache, i64 40, i1 false)
  br label %33

33:                                               ; preds = %32, %2
  ret i32 0
}